target datalayout = "e-m:e-p270:32:32-p271:32:32-p272:64:64-i64:64-i128:128-f80:128-n8:16:32:64-S128"
target triple = "x86_64-pc-linux-gnu"

%struct.Vec_Int_t_ = type { i32, i32, ptr }
%struct.Vec_Ptr_t_ = type { i32, i32, ptr }
%struct.Abc_Ntk_t_ = type { i32, i32, ptr, ptr, ptr, ptr, ptr, ptr, ptr, ptr, ptr, ptr, ptr, [11 x i32], i32, i32, i32, i32, ptr, i32, ptr, ptr, i32, i32, i32, double, i32, %struct.Vec_Int_t_, ptr, ptr, ptr, ptr, ptr, float, i32, ptr, ptr, ptr, ptr, ptr, ptr, ptr, ptr, ptr, ptr, ptr, ptr, ptr, ptr, ptr, ptr, ptr, ptr, ptr, ptr, ptr, ptr }
%struct.DdManager = type { %struct.DdNode, ptr, ptr, ptr, ptr, ptr, ptr, ptr, i32, i32, double, double, double, i32, i32, i32, i32, i32, i32, ptr, ptr, %struct.DdSubtable, i32, i32, i32, i32, i32, i32, i32, double, i32, i32, i32, ptr, i64, double, i32, ptr, ptr, ptr, ptr, ptr, ptr, ptr, i32, ptr, ptr, ptr, ptr, ptr, ptr, i32, i32, i32, double, i32, i32, i32, i32, double, double, i32, i32, i32, i32, i32, i32, i32, i32, i32, ptr, ptr, i32, i32, i32, i32, i32, i32, ptr, ptr, ptr, ptr, ptr, ptr, ptr, ptr, i32, i64, i64, i64, i32, i64, i64, double, double, double, double, double, double, i32, ptr, ptr, i64 }
%struct.DdNode = type { i32, i32, ptr, %union.anon.1, i64 }
%union.anon.1 = type { %struct.DdChildren }
%struct.DdChildren = type { ptr, ptr }
%struct.DdSubtable = type { ptr, i32, i32, i32, i32, i32, i32, i32, i32, i32, i32, i32 }
%struct.Vec_Att_t_ = type { i32, ptr, ptr, ptr, ptr, ptr }
%struct.timespec = type { i64, i64 }

@.str = private unnamed_addr constant [10 x i8] c"order.txt\00", align 1
@.str.1 = private unnamed_addr constant [3 x i8] c"wb\00", align 1
@.str.2 = private unnamed_addr constant [4 x i8] c"%d \00", align 1
@.str.3 = private unnamed_addr constant [2 x i8] c"\0A\00", align 1
@.str.4 = private unnamed_addr constant [31 x i8] c"Shared BDD size = %6d nodes.  \00", align 1
@.str.5 = private unnamed_addr constant [5 x i8] c"%s =\00", align 1
@.str.6 = private unnamed_addr constant [22 x i8] c"BDD construction time\00", align 1
@.str.7 = private unnamed_addr constant [11 x i8] c"%9.2f sec\0A\00", align 1
@.str.8 = private unnamed_addr constant [48 x i8] c"Abc_NtkCollapse: The network check has failed.\0A\00", align 1

; Function Attrs: inlinehint nounwind uwtable
define internal ptr @Vec_PtrEntry(ptr noundef %0, i32 noundef %1) #2 {
  %3 = alloca ptr, align 8
  %4 = alloca i32, align 4
  store ptr %0, ptr %3, align 8, !tbaa !13
  store i32 %1, ptr %4, align 4, !tbaa !11
  %5 = load ptr, ptr %3, align 8, !tbaa !13
  %6 = getelementptr inbounds nuw %struct.Vec_Ptr_t_, ptr %5, i32 0, i32 2
  %7 = load ptr, ptr %6, align 8, !tbaa !20
  %8 = load i32, ptr %4, align 4, !tbaa !11
  %9 = sext i32 %8 to i64
  %10 = getelementptr inbounds ptr, ptr %7, i64 %9
  %11 = load ptr, ptr %10, align 8, !tbaa !21
  ret ptr %11
}

; Function Attrs: inlinehint nounwind uwtable
define internal ptr @Vec_AttMan(ptr noundef %0) #2 {
  %2 = alloca ptr, align 8
  store ptr %0, ptr %2, align 8, !tbaa !153
  %3 = load ptr, ptr %2, align 8, !tbaa !153
  %4 = getelementptr inbounds nuw %struct.Vec_Att_t_, ptr %3, i32 0, i32 2
  %5 = load ptr, ptr %4, align 8, !tbaa !155
  ret ptr %5
}

; Function Attrs: inlinehint nounwind uwtable
define internal ptr @Abc_NtkGlobalBdd(ptr noundef %0) #2 {
  %2 = alloca ptr, align 8
  store ptr %0, ptr %2, align 8, !tbaa !52
  %3 = load ptr, ptr %2, align 8, !tbaa !52
  %4 = getelementptr inbounds nuw %struct.Abc_Ntk_t_, ptr %3, i32 0, i32 53
  %5 = load ptr, ptr %4, align 8, !tbaa !157
  %6 = call ptr @Vec_PtrEntry(ptr noundef %5, i32 noundef 7)
  ret ptr %6
}

; Function Attrs: nounwind uwtable
define void @Abc_NtkDumpVariableOrder(ptr noundef %0) #0 {
  %2 = alloca ptr, align 8
  %3 = alloca ptr, align 8
  %4 = alloca ptr, align 8
  %5 = alloca i32, align 4
  store ptr %0, ptr %2, align 8, !tbaa !52
  call void @llvm.lifetime.start.p0(i64 8, ptr %3) #11
  %6 = load ptr, ptr %2, align 8, !tbaa !52
  %7 = call ptr @Abc_NtkGlobalBddMan(ptr noundef %6)
  store ptr %7, ptr %3, align 8, !tbaa !59
  call void @llvm.lifetime.start.p0(i64 8, ptr %4) #11
  %8 = call noalias ptr @fopen(ptr noundef @.str, ptr noundef @.str.1)
  store ptr %8, ptr %4, align 8, !tbaa !79
  call void @llvm.lifetime.start.p0(i64 4, ptr %5) #11
  store i32 0, ptr %5, align 4, !tbaa !11
  br label %9

9:                                                ; preds = %25, %1
  %10 = load i32, ptr %5, align 4, !tbaa !11
  %11 = load ptr, ptr %3, align 8, !tbaa !59
  %12 = getelementptr inbounds nuw %struct.DdManager, ptr %11, i32 0, i32 15
  %13 = load i32, ptr %12, align 8, !tbaa !78
  %14 = icmp slt i32 %10, %13
  br i1 %14, label %15, label %28

15:                                               ; preds = %9
  %16 = load ptr, ptr %4, align 8, !tbaa !79
  %17 = load ptr, ptr %3, align 8, !tbaa !59
  %18 = getelementptr inbounds nuw %struct.DdManager, ptr %17, i32 0, i32 39
  %19 = load ptr, ptr %18, align 8, !tbaa !61
  %20 = load i32, ptr %5, align 4, !tbaa !11
  %21 = sext i32 %20 to i64
  %22 = getelementptr inbounds i32, ptr %19, i64 %21
  %23 = load i32, ptr %22, align 4, !tbaa !11
  %24 = call i32 (ptr, ptr, ...) @fprintf(ptr noundef %16, ptr noundef @.str.2, i32 noundef %23) #11
  br label %25

25:                                               ; preds = %15
  %26 = load i32, ptr %5, align 4, !tbaa !11
  %27 = add nsw i32 %26, 1
  store i32 %27, ptr %5, align 4, !tbaa !11
  br label %9, !llvm.loop !85

28:                                               ; preds = %9
  %29 = load ptr, ptr %4, align 8, !tbaa !79
  %30 = call i32 (ptr, ptr, ...) @fprintf(ptr noundef %29, ptr noundef @.str.3) #11
  %31 = load ptr, ptr %4, align 8, !tbaa !79
  %32 = call i32 @fclose(ptr noundef %31)
  call void @llvm.lifetime.end.p0(i64 4, ptr %5) #11
  call void @llvm.lifetime.end.p0(i64 8, ptr %4) #11
  call void @llvm.lifetime.end.p0(i64 8, ptr %3) #11
  ret void
}

; Function Attrs: inlinehint nounwind uwtable
define internal ptr @Abc_NtkGlobalBddMan(ptr noundef %0) #2 {
  %2 = alloca ptr, align 8
  store ptr %0, ptr %2, align 8, !tbaa !52
  %3 = load ptr, ptr %2, align 8, !tbaa !52
  %4 = call ptr @Abc_NtkGlobalBdd(ptr noundef %3)
  %5 = call ptr @Vec_AttMan(ptr noundef %4)
  ret ptr %5
}

; Function Attrs: inlinehint nounwind uwtable
define internal i64 @Abc_Clock() #2 {
  %1 = alloca i64, align 8
  %2 = alloca %struct.timespec, align 8
  %3 = alloca i32, align 4
  %4 = alloca i64, align 8
  call void @llvm.lifetime.start.p0(i64 16, ptr %2) #11
  %5 = call i32 @clock_gettime(i32 noundef 1, ptr noundef %2) #11
  %6 = icmp slt i32 %5, 0
  br i1 %6, label %7, label %8

7:                                                ; preds = %0
  store i64 -1, ptr %1, align 8
  store i32 1, ptr %3, align 4
  br label %19

8:                                                ; preds = %0
  call void @llvm.lifetime.start.p0(i64 8, ptr %4) #11
  %9 = getelementptr inbounds nuw %struct.timespec, ptr %2, i32 0, i32 0
  %10 = load i64, ptr %9, align 8, !tbaa !161
  %11 = mul nsw i64 %10, 1000000
  store i64 %11, ptr %4, align 8, !tbaa !86
  %12 = getelementptr inbounds nuw %struct.timespec, ptr %2, i32 0, i32 1
  %13 = load i64, ptr %12, align 8, !tbaa !163
  %14 = mul nsw i64 %13, 1000000
  %15 = sdiv i64 %14, 1000000000
  %16 = load i64, ptr %4, align 8, !tbaa !86
  %17 = add nsw i64 %16, %15
  store i64 %17, ptr %4, align 8, !tbaa !86
  %18 = load i64, ptr %4, align 8, !tbaa !86
  store i64 %18, ptr %1, align 8
  store i32 1, ptr %3, align 4
  call void @llvm.lifetime.end.p0(i64 8, ptr %4) #11
  br label %19

19:                                               ; preds = %8, %7
  call void @llvm.lifetime.end.p0(i64 16, ptr %2) #11
  %20 = load i64, ptr %1, align 8
  ret i64 %20
}

; Function Attrs: nounwind uwtable
define ptr @Abc_NtkCollapse(ptr noundef %0, i32 noundef %1, i32 noundef %2, i32 noundef %3, i32 noundef %4, i32 noundef %5, i32 noundef %6) #0 {
  %8 = alloca ptr, align 8
  %9 = alloca ptr, align 8
  %10 = alloca i32, align 4
  %11 = alloca i32, align 4
  %12 = alloca i32, align 4
  %13 = alloca i32, align 4
  %14 = alloca i32, align 4
  %15 = alloca i32, align 4
  %16 = alloca ptr, align 8
  %17 = alloca i64, align 8
  %18 = alloca i32, align 4
  %19 = alloca ptr, align 8
  store ptr %0, ptr %9, align 8, !tbaa !52
  store i32 %1, ptr %10, align 4, !tbaa !11
  store i32 %2, ptr %11, align 4, !tbaa !11
  store i32 %3, ptr %12, align 4, !tbaa !11
  store i32 %4, ptr %13, align 4, !tbaa !11
  store i32 %5, ptr %14, align 4, !tbaa !11
  store i32 %6, ptr %15, align 4, !tbaa !11
  call void @llvm.lifetime.start.p0(i64 8, ptr %16) #11
  call void @llvm.lifetime.start.p0(i64 8, ptr %17) #11
  %20 = call i64 @Abc_Clock()
  store i64 %20, ptr %17, align 8, !tbaa !86
  %21 = load ptr, ptr %9, align 8, !tbaa !52
  %22 = load i32, ptr %10, align 4, !tbaa !11
  %23 = load i32, ptr %12, align 4, !tbaa !11
  %24 = load i32, ptr %13, align 4, !tbaa !11
  %25 = load i32, ptr %15, align 4, !tbaa !11
  %26 = call ptr @Abc_NtkBuildGlobalBdds(ptr noundef %21, i32 noundef %22, i32 noundef 1, i32 noundef %23, i32 noundef %24, i32 noundef %25)
  %27 = icmp eq ptr %26, null
  br i1 %27, label %28, label %29

28:                                               ; preds = %7
  store ptr null, ptr %8, align 8
  store i32 1, ptr %18, align 4
  br label %84

29:                                               ; preds = %7
  %30 = load i32, ptr %15, align 4, !tbaa !11
  %31 = icmp ne i32 %30, 0
  br i1 %31, label %32, label %47

32:                                               ; preds = %29
  call void @llvm.lifetime.start.p0(i64 8, ptr %19) #11
  %33 = load ptr, ptr %9, align 8, !tbaa !52
  %34 = call ptr @Abc_NtkGlobalBddMan(ptr noundef %33)
  store ptr %34, ptr %19, align 8, !tbaa !59
  %35 = load ptr, ptr %19, align 8, !tbaa !59
  %36 = call i32 @Cudd_ReadKeys(ptr noundef %35)
  %37 = load ptr, ptr %19, align 8, !tbaa !59
  %38 = call i32 @Cudd_ReadDead(ptr noundef %37)
  %39 = sub i32 %36, %38
  %40 = call i32 (ptr, ...) @printf(ptr noundef @.str.4, i32 noundef %39)
  call void (i32, ptr, ...) @Abc_Print(i32 noundef 1, ptr noundef @.str.5, ptr noundef @.str.6)
  %41 = call i64 @Abc_Clock()
  %42 = load i64, ptr %17, align 8, !tbaa !86
  %43 = sub nsw i64 %41, %42
  %44 = sitofp i64 %43 to double
  %45 = fmul double 1.000000e+00, %44
  %46 = fdiv double %45, 1.000000e+06
  call void (i32, ptr, ...) @Abc_Print(i32 noundef 1, ptr noundef @.str.7, double noundef %46)
  call void @llvm.lifetime.end.p0(i64 8, ptr %19) #11
  br label %47

47:                                               ; preds = %32, %29
  %48 = load i32, ptr %14, align 4, !tbaa !11
  %49 = icmp ne i32 %48, 0
  br i1 %49, label %50, label %52

50:                                               ; preds = %47
  %51 = load ptr, ptr %9, align 8, !tbaa !52
  call void @Abc_NtkDumpVariableOrder(ptr noundef %51)
  br label %52

52:                                               ; preds = %50, %47
  %53 = load ptr, ptr %9, align 8, !tbaa !52
  %54 = load i32, ptr %13, align 4, !tbaa !11
  %55 = call ptr @Abc_NtkFromGlobalBdds(ptr noundef %53, i32 noundef %54)
  store ptr %55, ptr %16, align 8, !tbaa !52
  %56 = load ptr, ptr %9, align 8, !tbaa !52
  %57 = call ptr @Abc_NtkFreeGlobalBdds(ptr noundef %56, i32 noundef 1)
  %58 = load ptr, ptr %16, align 8, !tbaa !52
  %59 = icmp eq ptr %58, null
  br i1 %59, label %60, label %61

60:                                               ; preds = %52
  store ptr null, ptr %8, align 8
  store i32 1, ptr %18, align 4
  br label %84

61:                                               ; preds = %52
  %62 = load ptr, ptr %16, align 8, !tbaa !52
  %63 = call i32 @Abc_NtkMinimumBase2(ptr noundef %62)
  %64 = load ptr, ptr %9, align 8, !tbaa !52
  %65 = getelementptr inbounds nuw %struct.Abc_Ntk_t_, ptr %64, i32 0, i32 40
  %66 = load ptr, ptr %65, align 8, !tbaa !76
  %67 = icmp ne ptr %66, null
  br i1 %67, label %68, label %75

68:                                               ; preds = %61
  %69 = load ptr, ptr %9, align 8, !tbaa !52
  %70 = getelementptr inbounds nuw %struct.Abc_Ntk_t_, ptr %69, i32 0, i32 40
  %71 = load ptr, ptr %70, align 8, !tbaa !76
  %72 = call ptr @Abc_NtkDup(ptr noundef %71)
  %73 = load ptr, ptr %16, align 8, !tbaa !52
  %74 = getelementptr inbounds nuw %struct.Abc_Ntk_t_, ptr %73, i32 0, i32 40
  store ptr %72, ptr %74, align 8, !tbaa !76
  br label %75

75:                                               ; preds = %68, %61
  %76 = load ptr, ptr %16, align 8, !tbaa !52
  %77 = call i32 @Abc_NtkCheck(ptr noundef %76)
  %78 = icmp ne i32 %77, 0
  br i1 %78, label %82, label %79

79:                                               ; preds = %75
  %80 = call i32 (ptr, ...) @printf(ptr noundef @.str.8)
  %81 = load ptr, ptr %16, align 8, !tbaa !52
  call void @Abc_NtkDelete(ptr noundef %81)
  store ptr null, ptr %8, align 8
  store i32 1, ptr %18, align 4
  br label %84

82:                                               ; preds = %75
  %83 = load ptr, ptr %16, align 8, !tbaa !52
  store ptr %83, ptr %8, align 8
  store i32 1, ptr %18, align 4
  br label %84

84:                                               ; preds = %82, %79, %60, %28
  call void @llvm.lifetime.end.p0(i64 8, ptr %17) #11
  call void @llvm.lifetime.end.p0(i64 8, ptr %16) #11
  %85 = load ptr, ptr %8, align 8
  ret ptr %85
}