; Function Attrs: nounwind uwtable
define ptr @Abc_NtkCollapse(ptr noundef %0, i32 noundef %1, i32 noundef %2, i32 noundef %3, i32 noundef %4, i32 noundef %5, i32 noundef %6) local_unnamed_addr #0 {
  %8 = alloca %struct.timespec, align 8
  %9 = alloca %struct.timespec, align 8
  call void @llvm.lifetime.start.p0(i64 16, ptr nonnull %9) #18
  %10 = call i32 @clock_gettime(i32 noundef 1, ptr noundef nonnull %9) #18
  %11 = icmp slt i32 %10, 0
  br i1 %11, label %Abc_Clock.exit, label %12

12:                                               ; preds = %7
  %13 = load i64, ptr %9, align 8, !tbaa !80
  %.neg30 = mul i64 %13, -1000000
  %14 = getelementptr inbounds nuw i8, ptr %9, i64 8
  %15 = load i64, ptr %14, align 8, !tbaa !82
  %.neg = sdiv i64 %15, -1000
  %.neg31 = add i64 %.neg, %.neg30
  br label %Abc_Clock.exit

Abc_Clock.exit:                                   ; preds = %7, %12
  %.0.i.neg = phi i64 [ %.neg31, %12 ], [ 1, %7 ]
  call void @llvm.lifetime.end.p0(i64 16, ptr nonnull %9) #18
  %16 = call ptr @Abc_NtkBuildGlobalBdds(ptr noundef %0, i32 noundef %1, i32 noundef 1, i32 noundef %3, i32 noundef %4, i32 noundef %6) #18
  %17 = icmp eq ptr %16, null
  br i1 %17, label %74, label %18

18:                                               ; preds = %Abc_Clock.exit
  %.not = icmp eq i32 %6, 0
  br i1 %.not, label %40, label %19

19:                                               ; preds = %18
  %20 = getelementptr i8, ptr %0, i64 432
  %.val = load ptr, ptr %20, align 8, !tbaa !67
  %21 = getelementptr i8, ptr %.val, i64 8
  %.val.val = load ptr, ptr %21, align 8, !tbaa !22
  %22 = getelementptr i8, ptr %.val.val, i64 56
  %.val.val.val = load ptr, ptr %22, align 8, !tbaa !24
  %23 = getelementptr i8, ptr %.val.val.val, i64 16
  %.val.val.val.val = load ptr, ptr %23, align 8, !tbaa !68
  %24 = call i32 @Cudd_ReadKeys(ptr noundef %.val.val.val.val) #18
  %25 = call i32 @Cudd_ReadDead(ptr noundef %.val.val.val.val) #18
  %26 = sub i32 %24, %25
  %27 = call i32 (ptr, ...) @printf(ptr noundef nonnull dereferenceable(1) @.str.4, i32 noundef %26)
  call void (i32, ptr, ...) @Abc_Print(i32 poison, ptr noundef nonnull @.str.5, ptr noundef nonnull @.str.6)
  call void @llvm.lifetime.start.p0(i64 16, ptr nonnull %8) #18
  %28 = call i32 @clock_gettime(i32 noundef 1, ptr noundef nonnull %8) #18
  %29 = icmp slt i32 %28, 0
  br i1 %29, label %Abc_Clock.exit29, label %30

30:                                               ; preds = %19
  %31 = load i64, ptr %8, align 8, !tbaa !80
  %32 = mul nsw i64 %31, 1000000
  %33 = getelementptr inbounds nuw i8, ptr %8, i64 8
  %34 = load i64, ptr %33, align 8, !tbaa !82
  %35 = sdiv i64 %34, 1000
  %36 = add nsw i64 %35, %32
  br label %Abc_Clock.exit29

Abc_Clock.exit29:                                 ; preds = %19, %30
  %.0.i28 = phi i64 [ %36, %30 ], [ -1, %19 ]
  call void @llvm.lifetime.end.p0(i64 16, ptr nonnull %8) #18
  %37 = add i64 %.0.i28, %.0.i.neg
  %38 = sitofp i64 %37 to double
  %39 = fdiv double %38, 1.000000e+06
  call void (i32, ptr, ...) @Abc_Print(i32 poison, ptr noundef nonnull @.str.7, double noundef %39)
  br label %40

40:                                               ; preds = %Abc_Clock.exit29, %18
  %.not25 = icmp eq i32 %5, 0
  br i1 %.not25, label %60, label %41

41:                                               ; preds = %40
  %42 = getelementptr i8, ptr %0, i64 432
  %.val.i = load ptr, ptr %42, align 8, !tbaa !67
  %43 = getelementptr i8, ptr %.val.i, i64 8
  %.val.val.i = load ptr, ptr %43, align 8, !tbaa !22
  %44 = getelementptr i8, ptr %.val.val.i, i64 56
  %.val.val.val.i = load ptr, ptr %44, align 8, !tbaa !24
  %45 = getelementptr i8, ptr %.val.val.val.i, i64 16
  %.val.val.val.val.i = load ptr, ptr %45, align 8, !tbaa !68
  %46 = call noalias ptr @fopen(ptr noundef nonnull @.str, ptr noundef nonnull @.str.1)
  %47 = getelementptr inbounds nuw i8, ptr %.val.val.val.val.i, i64 136
  %48 = load i32, ptr %47, align 8, !tbaa !76
  %49 = icmp sgt i32 %48, 0
  br i1 %49, label %.lr.ph.i, label %Abc_NtkDumpVariableOrder.exit

.lr.ph.i:                                         ; preds = %41
  %50 = getelementptr inbounds nuw i8, ptr %.val.val.val.val.i, i64 328
  br label %51

51:                                               ; preds = %51, %.lr.ph.i
  %indvars.iv.i = phi i64 [ 0, %.lr.ph.i ], [ %indvars.iv.next.i, %51 ]
  %52 = load ptr, ptr %50, align 8, !tbaa !52
  %53 = getelementptr inbounds nuw i32, ptr %52, i64 %indvars.iv.i
  %54 = load i32, ptr %53, align 4, !tbaa !28
  %55 = call i32 (ptr, ptr, ...) @fprintf(ptr noundef %46, ptr noundef nonnull @.str.2, i32 noundef %54) #18
  %indvars.iv.next.i = add nuw nsw i64 %indvars.iv.i, 1
  %56 = load i32, ptr %47, align 8, !tbaa !76
  %57 = sext i32 %56 to i64
  %58 = icmp slt i64 %indvars.iv.next.i, %57
  br i1 %58, label %51, label %Abc_NtkDumpVariableOrder.exit, !llvm.loop !79

Abc_NtkDumpVariableOrder.exit:                    ; preds = %51, %41
  %fputc.i = call i32 @fputc(i32 10, ptr %46)
  %59 = call i32 @fclose(ptr noundef %46)
  br label %60

60:                                               ; preds = %Abc_NtkDumpVariableOrder.exit, %40
  %61 = call ptr @Abc_NtkFromGlobalBdds(ptr noundef %0, i32 noundef %4)
  %62 = call ptr @Abc_NtkFreeGlobalBdds(ptr noundef %0, i32 noundef 1) #18
  %63 = icmp eq ptr %61, null
  br i1 %63, label %74, label %64

64:                                               ; preds = %60
  %65 = call i32 @Abc_NtkMinimumBase2(ptr noundef nonnull %61)
  %66 = getelementptr inbounds nuw i8, ptr %0, i64 328
  %67 = load ptr, ptr %66, align 8, !tbaa !70
  %.not26 = icmp eq ptr %67, null
  br i1 %.not26, label %71, label %68

68:                                               ; preds = %64
  %69 = call ptr @Abc_NtkDup(ptr noundef nonnull %67) #18
  %70 = getelementptr inbounds nuw i8, ptr %61, i64 328
  store ptr %69, ptr %70, align 8, !tbaa !70
  br label %71

71:                                               ; preds = %68, %64
  %72 = call i32 @Abc_NtkCheck(ptr noundef nonnull %61) #18
  %.not27 = icmp eq i32 %72, 0
  br i1 %.not27, label %73, label %74

73:                                               ; preds = %71
  %puts = call i32 @puts(ptr nonnull dereferenceable(1) @str)
  call void @Abc_NtkDelete(ptr noundef nonnull %61) #18
  br label %74

74:                                               ; preds = %71, %60, %Abc_Clock.exit, %73
  %.0 = phi ptr [ null, %73 ], [ null, %Abc_Clock.exit ], [ null, %60 ], [ %61, %71 ]
  ret ptr %.0
}